; Function Attrs: mustprogress nofree norecurse nosync nounwind willreturn memory(read, inaccessiblemem: none) uwtable
define noundef ptr @_ZNK5arrow20FixedSizeBinaryArray8GetValueEl(ptr nocapture noundef nonnull readonly align 8 dereferenceable(44) %this, i64 noundef %i) local_unnamed_addr #4 align 2 {
entry:
  %raw_values_ = getelementptr inbounds i8, ptr %this, i64 32
  %0 = load ptr, ptr %raw_values_, align 8
  %data_ = getelementptr inbounds i8, ptr %this, i64 8
  %1 = load ptr, ptr %data_, align 8
  %offset = getelementptr inbounds i8, ptr %1, i64 32
  %2 = load i64, ptr %offset, align 8
  %add = add nsw i64 %2, %i
  %byte_width_ = getelementptr inbounds i8, ptr %this, i64 40
  %3 = load i32, ptr %byte_width_, align 8
  %conv = sext i32 %3 to i64
  %mul = mul nsw i64 %add, %conv
  %add.ptr = getelementptr inbounds i8, ptr %0, i64 %mul
  ret ptr %add.ptr
}